; Function Attrs: nounwind sspstrong uwtable
define internal i64 @io_buffer_get_value(i64 noundef %0, i64 noundef %1, i64 noundef %2) #0 {
  %4 = alloca i64, align 8
  call void @llvm.lifetime.start.p0(i64 8, ptr nonnull %4) #25
  %5 = tail call i32 @rb_int_negative_p(i64 noundef %2) #25
  %.not.i = icmp eq i32 %5, 0
  br i1 %.not.i, label %8, label %6

6:                                                ; preds = %3
  %7 = load i64, ptr @rb_eArgError, align 8, !tbaa !22
  tail call void (i64, ptr, ...) @rb_raise(i64 noundef %7, ptr noundef nonnull @.str.131) #26
  unreachable

8:                                                ; preds = %3
  %9 = and i64 %2, 1
  %.not.i.i = icmp eq i64 %9, 0
  br i1 %.not.i.i, label %12, label %10

10:                                               ; preds = %8
  %11 = ashr i64 %2, 1
  br label %io_buffer_extract_offset.exit

12:                                               ; preds = %8
  %13 = tail call i64 @rb_num2ull(i64 noundef %2) #25
  br label %io_buffer_extract_offset.exit

io_buffer_extract_offset.exit:                    ; preds = %10, %12
  %.0.i.i = phi i64 [ %11, %10 ], [ %13, %12 ]
  store i64 %.0.i.i, ptr %4, align 8, !tbaa !22
  %14 = tail call ptr @rb_check_typeddata(i64 noundef %0, ptr noundef nonnull @rb_io_buffer_type) #25
  %15 = getelementptr inbounds nuw i8, ptr %14, i64 24
  %16 = load i64, ptr %15, align 8, !tbaa !7
  %.not.i.i.i = icmp eq i64 %16, 4
  br i1 %.not.i.i.i, label %io_buffer_validate.exit.thread.i.i, label %io_buffer_validate.exit.i.i

io_buffer_validate.exit.i.i:                      ; preds = %io_buffer_extract_offset.exit
  %17 = load ptr, ptr %14, align 8, !tbaa !14
  %18 = getelementptr inbounds nuw i8, ptr %14, i64 8
  %19 = load i64, ptr %18, align 8, !tbaa !16
  %20 = tail call fastcc i32 @io_buffer_validate_slice(i64 noundef %16, ptr noundef %17, i64 noundef %19)
  %.not.i.i3 = icmp eq i32 %20, 0
  br i1 %.not.i.i3, label %21, label %io_buffer_validate.exit.thread.i.i

21:                                               ; preds = %io_buffer_validate.exit.i.i
  %22 = load i64, ptr @rb_eIOBufferInvalidatedError, align 8, !tbaa !22
  tail call void (i64, ptr, ...) @rb_raise(i64 noundef %22, ptr noundef nonnull @.str.119) #26
  unreachable

io_buffer_validate.exit.thread.i.i:               ; preds = %io_buffer_validate.exit.i.i, %io_buffer_extract_offset.exit
  %23 = load ptr, ptr %14, align 8, !tbaa !14
  %.not8.i.i = icmp eq ptr %23, null
  br i1 %.not8.i.i, label %rb_io_buffer_get_bytes_for_reading.exit, label %24

24:                                               ; preds = %io_buffer_validate.exit.thread.i.i
  %25 = getelementptr inbounds nuw i8, ptr %14, i64 8
  %26 = load i64, ptr %25, align 8, !tbaa !16
  br label %rb_io_buffer_get_bytes_for_reading.exit

rb_io_buffer_get_bytes_for_reading.exit:          ; preds = %io_buffer_validate.exit.thread.i.i, %24
  %storemerge.i.i = phi i64 [ %26, %24 ], [ 0, %io_buffer_validate.exit.thread.i.i ]
  %27 = tail call i64 @rb_sym2id(i64 noundef %1) #25
  %28 = call fastcc i64 @rb_io_buffer_get_value(ptr noundef %23, i64 noundef %storemerge.i.i, i64 noundef %27, ptr noundef %4)
  call void @llvm.lifetime.end.p0(i64 8, ptr nonnull %4) #25
  ret i64 %28
}